; Function Attrs: mustprogress uwtable
define void @_ZN2cv8imdecodeERKNS_11_InputArrayEiPNS_3MatE(ptr dead_on_unwind noalias writable sret(%"class.cv::Mat") align 8 %0, ptr noundef nonnull align 8 dereferenceable(24) %1, i32 noundef %2, ptr noundef %3) local_unnamed_addr #4 personality ptr @__gxx_personality_v0 {
  %5 = alloca %"class.cv::utils::trace::details::Region", align 8
  %6 = alloca %"class.cv::Mat", align 8
  %7 = alloca %"class.cv::Mat", align 8
  call void @llvm.lifetime.start.p0(i64 16, ptr nonnull %5) #30
  call void @_ZN2cv5utils5trace7details6RegionC1ERKNS3_21LocationStaticStorageE(ptr noundef nonnull align 8 dereferenceable(12) %5, ptr noundef nonnull align 8 dereferenceable(32) @_ZZN2cv8imdecodeERKNS_11_InputArrayEiPNS_3MatEE26__cv_trace_location_fn1140)
  call void @llvm.lifetime.start.p0(i64 96, ptr nonnull %6) #30
  %8 = invoke noundef i32 @_ZNK2cv11_InputArray4kindEv(ptr noundef nonnull align 8 dereferenceable(24) %1)
          to label %.noexc unwind label %18

.noexc:                                           ; preds = %4
  %9 = icmp eq i32 %8, 65536
  br i1 %9, label %10, label %13

10:                                               ; preds = %.noexc
  %11 = getelementptr inbounds nuw i8, ptr %1, i64 8
  %12 = load ptr, ptr %11, align 8, !tbaa !10, !noalias !193
  invoke void @_ZN2cv3MatC1ERKS0_(ptr noundef nonnull align 8 dereferenceable(96) %6, ptr noundef nonnull align 8 dereferenceable(96) %12)
          to label %_ZNK2cv11_InputArray6getMatEi.exit unwind label %18

13:                                               ; preds = %.noexc
  invoke void @_ZNK2cv11_InputArray7getMat_Ei(ptr dead_on_unwind nonnull writable sret(%"class.cv::Mat") align 8 %6, ptr noundef nonnull align 8 dereferenceable(24) %1, i32 noundef -1)
          to label %_ZNK2cv11_InputArray6getMatEi.exit unwind label %18

_ZNK2cv11_InputArray6getMatEi.exit:               ; preds = %10, %13
  call void @llvm.lifetime.start.p0(i64 96, ptr nonnull %7) #30
  call void @_ZN2cv3MatC1Ev(ptr noundef nonnull align 8 dereferenceable(96) %7) #30
  %.not = icmp eq ptr %3, null
  %14 = select i1 %.not, ptr %7, ptr %3
  %15 = invoke fastcc noundef zeroext i1 @_ZN2cvL9imdecode_ERKNS_3MatEiRS0_(ptr noundef nonnull align 8 dereferenceable(96) %6, i32 noundef %2, ptr noundef nonnull align 8 dereferenceable(96) %14)
          to label %16 unwind label %20

16:                                               ; preds = %_ZNK2cv11_InputArray6getMatEi.exit
  br i1 %15, label %17, label %22

17:                                               ; preds = %16
  invoke void @_ZN2cv3MatC1ERKS0_(ptr noundef nonnull align 8 dereferenceable(96) %0, ptr noundef nonnull align 8 dereferenceable(96) %14)
          to label %23 unwind label %20

18:                                               ; preds = %13, %10, %4
  %19 = landingpad { ptr, i32 }
          cleanup
  br label %30

20:                                               ; preds = %17, %_ZNK2cv11_InputArray6getMatEi.exit
  %21 = landingpad { ptr, i32 }
          cleanup
  call void @_ZN2cv3MatD1Ev(ptr noundef nonnull align 8 dereferenceable(96) %7) #30
  call void @llvm.lifetime.end.p0(i64 96, ptr nonnull %7) #30
  call void @_ZN2cv3MatD1Ev(ptr noundef nonnull align 8 dereferenceable(96) %6) #30
  br label %30

22:                                               ; preds = %16
  call void @_ZN2cv3MatC1Ev(ptr noundef nonnull align 8 dereferenceable(96) %0) #30
  br label %23

23:                                               ; preds = %17, %22
  call void @_ZN2cv3MatD1Ev(ptr noundef nonnull align 8 dereferenceable(96) %7) #30
  call void @llvm.lifetime.end.p0(i64 96, ptr nonnull %7) #30
  call void @_ZN2cv3MatD1Ev(ptr noundef nonnull align 8 dereferenceable(96) %6) #30
  call void @llvm.lifetime.end.p0(i64 96, ptr nonnull %6) #30
  %24 = getelementptr inbounds nuw i8, ptr %5, i64 8
  %25 = load i32, ptr %24, align 8, !tbaa !11
  %.not.i = icmp eq i32 %25, 0
  br i1 %.not.i, label %_ZN2cv5utils5trace7details6RegionD2Ev.exit, label %26

26:                                               ; preds = %23
  invoke void @_ZN2cv5utils5trace7details6Region7destroyEv(ptr noundef nonnull align 8 dereferenceable(12) %5)
          to label %_ZN2cv5utils5trace7details6RegionD2Ev.exit unwind label %27

27:                                               ; preds = %26
  %28 = landingpad { ptr, i32 }
          catch ptr null
  %29 = extractvalue { ptr, i32 } %28, 0
  call void @__clang_call_terminate(ptr %29) #31
  unreachable

_ZN2cv5utils5trace7details6RegionD2Ev.exit:       ; preds = %23, %26
  call void @llvm.lifetime.end.p0(i64 16, ptr nonnull %5) #30
  ret void

30:                                               ; preds = %20, %18
  %.pn = phi { ptr, i32 } [ %21, %20 ], [ %19, %18 ]
  call void @llvm.lifetime.end.p0(i64 96, ptr nonnull %6) #30
  call void @_ZN2cv5utils5trace7details6RegionD2Ev(ptr noundef nonnull align 8 dereferenceable(12) %5) #30
  call void @llvm.lifetime.end.p0(i64 16, ptr nonnull %5) #30
  resume { ptr, i32 } %.pn
}